; ModuleID = '24/2607.c'
source_filename = "24/2607.c"
target datalayout = "e-m:e-p270:32:32-p271:32:32-p272:64:64-i64:64-f80:128-n8:16:32:64-S128"
target triple = "x86_64-pc-linux-gnu"

@.str = private unnamed_addr constant [3 x i8] c"%d\00", align 1
@.str.1 = private unnamed_addr constant [3 x i8] c"%s\00", align 1
@.str.2 = private unnamed_addr constant [4 x i8] c"%s\0A\00", align 1

; Function Attrs: noinline nounwind uwtable
define dso_local i32 @main() #0 {
  %1 = alloca i32, align 4
  %2 = alloca i32, align 4
  %3 = alloca i32, align 4
  %4 = alloca i32, align 4
  %5 = alloca i32, align 4
  %6 = alloca [1000 x i32], align 16
  %7 = alloca [1000 x [100 x i8]], align 16
  store i32 0, i32* %1, align 4
  %8 = call i32 (i8*, ...) @__isoc99_scanf(i8* getelementptr inbounds ([3 x i8], [3 x i8]* @.str, i64 0, i64 0), i32* %2)
  store i32 0, i32* %3, align 4
  br label %9

9:                                                ; preds = %28, %0
  %10 = load i32, i32* %3, align 4
  %11 = load i32, i32* %2, align 4
  %12 = icmp slt i32 %10, %11
  br i1 %12, label %13, label %31

13:                                               ; preds = %9
  %14 = load i32, i32* %3, align 4
  %15 = sext i32 %14 to i64
  %16 = getelementptr inbounds [1000 x [100 x i8]], [1000 x [100 x i8]]* %7, i64 0, i64 %15
  %17 = getelementptr inbounds [100 x i8], [100 x i8]* %16, i64 0, i64 0
  %18 = call i32 (i8*, ...) @__isoc99_scanf(i8* getelementptr inbounds ([3 x i8], [3 x i8]* @.str.1, i64 0, i64 0), i8* %17)
  %19 = load i32, i32* %3, align 4
  %20 = sext i32 %19 to i64
  %21 = getelementptr inbounds [1000 x [100 x i8]], [1000 x [100 x i8]]* %7, i64 0, i64 %20
  %22 = getelementptr inbounds [100 x i8], [100 x i8]* %21, i64 0, i64 0
  %23 = call i64 @strlen(i8* %22) #3
  %24 = trunc i64 %23 to i32
  %25 = load i32, i32* %3, align 4
  %26 = sext i32 %25 to i64
  %27 = getelementptr inbounds [1000 x i32], [1000 x i32]* %6, i64 0, i64 %26
  store i32 %24, i32* %27, align 4
  br label %28

28:                                               ; preds = %13
  %29 = load i32, i32* %3, align 4
  %30 = add nsw i32 %29, 1
  store i32 %30, i32* %3, align 4
  br label %9

31:                                               ; preds = %9
  store i32 0, i32* %3, align 4
  br label %32

32:                                               ; preds = %77, %31
  %33 = load i32, i32* %3, align 4
  %34 = load i32, i32* %2, align 4
  %35 = icmp slt i32 %33, %34
  br i1 %35, label %36, label %80

36:                                               ; preds = %32
  %37 = load i32, i32* %2, align 4
  %38 = sub nsw i32 %37, 1
  store i32 %38, i32* %4, align 4
  br label %39

39:                                               ; preds = %73, %36
  %40 = load i32, i32* %4, align 4
  %41 = load i32, i32* %3, align 4
  %42 = icmp sgt i32 %40, %41
  br i1 %42, label %43, label %76

43:                                               ; preds = %39
  %44 = load i32, i32* %4, align 4
  %45 = sext i32 %44 to i64
  %46 = getelementptr inbounds [1000 x i32], [1000 x i32]* %6, i64 0, i64 %45
  %47 = load i32, i32* %46, align 4
  %48 = load i32, i32* %4, align 4
  %49 = sub nsw i32 %48, 1
  %50 = sext i32 %49 to i64
  %51 = getelementptr inbounds [1000 x i32], [1000 x i32]* %6, i64 0, i64 %50
  %52 = load i32, i32* %51, align 4
  %53 = icmp sgt i32 %47, %52
  br i1 %53, label %54, label %72

54:                                               ; preds = %43
  %55 = load i32, i32* %4, align 4
  %56 = sext i32 %55 to i64
  %57 = getelementptr inbounds [1000 x i32], [1000 x i32]* %6, i64 0, i64 %56
  %58 = load i32, i32* %57, align 4
  store i32 %58, i32* %5, align 4
  %59 = load i32, i32* %4, align 4
  %60 = sub nsw i32 %59, 1
  %61 = sext i32 %60 to i64
  %62 = getelementptr inbounds [1000 x i32], [1000 x i32]* %6, i64 0, i64 %61
  %63 = load i32, i32* %62, align 4
  %64 = load i32, i32* %4, align 4
  %65 = sext i32 %64 to i64
  %66 = getelementptr inbounds [1000 x i32], [1000 x i32]* %6, i64 0, i64 %65
  store i32 %63, i32* %66, align 4
  %67 = load i32, i32* %5, align 4
  %68 = load i32, i32* %4, align 4
  %69 = sub nsw i32 %68, 1
  %70 = sext i32 %69 to i64
  %71 = getelementptr inbounds [1000 x i32], [1000 x i32]* %6, i64 0, i64 %70
  store i32 %67, i32* %71, align 4
  br label %72

72:                                               ; preds = %54, %43
  br label %73

73:                                               ; preds = %72
  %74 = load i32, i32* %4, align 4
  %75 = add nsw i32 %74, -1
  store i32 %75, i32* %4, align 4
  br label %39

76:                                               ; preds = %39
  br label %77

77:                                               ; preds = %76
  %78 = load i32, i32* %3, align 4
  %79 = add nsw i32 %78, 1
  store i32 %79, i32* %3, align 4
  br label %32

80:                                               ; preds = %32
  store i32 0, i32* %3, align 4
  br label %81

81:                                               ; preds = %102, %80
  %82 = load i32, i32* %3, align 4
  %83 = load i32, i32* %2, align 4
  %84 = icmp slt i32 %82, %83
  br i1 %84, label %85, label %105

85:                                               ; preds = %81
  %86 = load i32, i32* %3, align 4
  %87 = sext i32 %86 to i64
  %88 = getelementptr inbounds [1000 x [100 x i8]], [1000 x [100 x i8]]* %7, i64 0, i64 %87
  %89 = getelementptr inbounds [100 x i8], [100 x i8]* %88, i64 0, i64 0
  %90 = call i64 @strlen(i8* %89) #3
  %91 = getelementptr inbounds [1000 x i32], [1000 x i32]* %6, i64 0, i64 0
  %92 = load i32, i32* %91, align 16
  %93 = sext i32 %92 to i64
  %94 = icmp eq i64 %90, %93
  br i1 %94, label %95, label %101

95:                                               ; preds = %85
  %96 = load i32, i32* %3, align 4
  %97 = sext i32 %96 to i64
  %98 = getelementptr inbounds [1000 x [100 x i8]], [1000 x [100 x i8]]* %7, i64 0, i64 %97
  %99 = getelementptr inbounds [100 x i8], [100 x i8]* %98, i64 0, i64 0
  %100 = call i32 (i8*, ...) @printf(i8* getelementptr inbounds ([4 x i8], [4 x i8]* @.str.2, i64 0, i64 0), i8* %99)
  br label %105

101:                                              ; preds = %85
  br label %102

102:                                              ; preds = %101
  %103 = load i32, i32* %3, align 4
  %104 = add nsw i32 %103, 1
  store i32 %104, i32* %3, align 4
  br label %81

105:                                              ; preds = %95, %81
  store i32 0, i32* %3, align 4
  br label %106

106:                                              ; preds = %130, %105
  %107 = load i32, i32* %3, align 4
  %108 = load i32, i32* %2, align 4
  %109 = icmp slt i32 %107, %108
  br i1 %109, label %110, label %133

110:                                              ; preds = %106
  %111 = load i32, i32* %3, align 4
  %112 = sext i32 %111 to i64
  %113 = getelementptr inbounds [1000 x [100 x i8]], [1000 x [100 x i8]]* %7, i64 0, i64 %112
  %114 = getelementptr inbounds [100 x i8], [100 x i8]* %113, i64 0, i64 0
  %115 = call i64 @strlen(i8* %114) #3
  %116 = load i32, i32* %2, align 4
  %117 = sub nsw i32 %116, 1
  %118 = sext i32 %117 to i64
  %119 = getelementptr inbounds [1000 x i32], [1000 x i32]* %6, i64 0, i64 %118
  %120 = load i32, i32* %119, align 4
  %121 = sext i32 %120 to i64
  %122 = icmp eq i64 %115, %121
  br i1 %122, label %123, label %129

123:                                              ; preds = %110
  %124 = load i32, i32* %3, align 4
  %125 = sext i32 %124 to i64
  %126 = getelementptr inbounds [1000 x [100 x i8]], [1000 x [100 x i8]]* %7, i64 0, i64 %125
  %127 = getelementptr inbounds [100 x i8], [100 x i8]* %126, i64 0, i64 0
  %128 = call i32 (i8*, ...) @printf(i8* getelementptr inbounds ([4 x i8], [4 x i8]* @.str.2, i64 0, i64 0), i8* %127)
  br label %133

129:                                              ; preds = %110
  br label %130

130:                                              ; preds = %129
  %131 = load i32, i32* %3, align 4
  %132 = add nsw i32 %131, 1
  store i32 %132, i32* %3, align 4
  br label %106

133:                                              ; preds = %123, %106
  ret i32 0
}

declare dso_local i32 @__isoc99_scanf(i8*, ...) #1

; Function Attrs: nounwind readonly
declare dso_local i64 @strlen(i8*) #2

declare dso_local i32 @printf(i8*, ...) #1


!llvm.module.flags = !{!0}
!llvm.ident = !{!1}

!0 = !{i32 1, !"wchar_size", i32 4}
!1 = !{!"clang version 10.0.0-4ubuntu1 "}
